target datalayout = "e-m:e-p270:32:32-p271:32:32-p272:64:64-i64:64-i128:128-f80:128-n8:16:32:64-S128"
target triple = "x86_64-pc-linux-gnu"

@hf_gsm_a_bssmap_spare_bits = internal global i32 0, align 4
@cell_discriminator = internal global i8 15, align 1
@hf_gsm_a_bssmap_be_cell_id_disc = internal global i32 0, align 4

; Function Attrs: null_pointer_is_valid sspstrong uwtable
define hidden zeroext i16 @be_cell_id_aux(ptr noundef %0, ptr noundef %1, ptr noundef %2, i32 noundef %3, i32 noundef %4, ptr noundef %5, i32 noundef %6, i8 noundef zeroext %7) #1 {
  %9 = alloca ptr, align 8
  %10 = alloca ptr, align 8
  %11 = alloca ptr, align 8
  %12 = alloca i32, align 4
  %13 = alloca i32, align 4
  %14 = alloca ptr, align 8
  %15 = alloca i32, align 4
  %16 = alloca i8, align 1
  store ptr %0, ptr %9, align 8
  store ptr %1, ptr %10, align 8
  store ptr %2, ptr %11, align 8
  store i32 %3, ptr %12, align 4
  store i32 %4, ptr %13, align 4
  store ptr %5, ptr %14, align 8
  store i32 %6, ptr %15, align 4
  store i8 %7, ptr %16, align 1
  %17 = load ptr, ptr %9, align 8
  %18 = load ptr, ptr %10, align 8
  %19 = load ptr, ptr %11, align 8
  %20 = load i32, ptr %12, align 4
  %21 = load i32, ptr %13, align 4
  %22 = load ptr, ptr %14, align 8
  %23 = load i32, ptr %15, align 4
  %24 = load i8, ptr %16, align 1
  %25 = call zeroext i16 @be_cell_id_type(ptr noundef %17, ptr noundef %18, ptr noundef %19, i32 noundef %20, i32 noundef %21, ptr noundef %22, i32 noundef %23, i8 noundef zeroext %24, i32 noundef 0)
  ret i16 %25
}

; Function Attrs: null_pointer_is_valid sspstrong uwtable
define internal zeroext i16 @be_cell_id(ptr noundef %0, ptr noundef %1, ptr noundef %2, i32 noundef %3, i32 noundef %4, ptr noundef %5, i32 noundef %6) #1 {
  %8 = alloca i16, align 2
  %9 = alloca ptr, align 8
  %10 = alloca ptr, align 8
  %11 = alloca ptr, align 8
  %12 = alloca i32, align 4
  %13 = alloca i32, align 4
  %14 = alloca ptr, align 8
  %15 = alloca i32, align 4
  %16 = alloca i8, align 1
  %17 = alloca i8, align 1
  %18 = alloca i32, align 4
  %19 = alloca i32, align 4
  store ptr %0, ptr %9, align 8
  store ptr %1, ptr %10, align 8
  store ptr %2, ptr %11, align 8
  store i32 %3, ptr %12, align 4
  store i32 %4, ptr %13, align 4
  store ptr %5, ptr %14, align 8
  store i32 %6, ptr %15, align 4
  call void @llvm.lifetime.start.p0(i64 1, ptr %16) #5
  call void @llvm.lifetime.start.p0(i64 1, ptr %17) #5
  call void @llvm.lifetime.start.p0(i64 4, ptr %18) #5
  %20 = load i32, ptr %12, align 4
  store i32 %20, ptr %18, align 4
  %21 = load ptr, ptr %9, align 8
  %22 = load i32, ptr %18, align 4
  %23 = call zeroext i8 @tvb_get_uint8(ptr noundef %21, i32 noundef %22)
  store i8 %23, ptr %16, align 1
  %24 = load ptr, ptr %10, align 8
  %25 = load i32, ptr @hf_gsm_a_bssmap_spare_bits, align 4
  %26 = load ptr, ptr %9, align 8
  %27 = load i32, ptr %18, align 4
  %28 = shl i32 %27, 3
  %29 = call ptr @proto_tree_add_bits_item(ptr noundef %24, i32 noundef %25, ptr noundef %26, i32 noundef %28, i32 noundef 4, i32 noundef 0)
  %30 = load ptr, ptr %10, align 8
  %31 = load i32, ptr @hf_gsm_a_bssmap_be_cell_id_disc, align 4
  %32 = load ptr, ptr %9, align 8
  %33 = load i32, ptr %18, align 4
  %34 = call ptr @proto_tree_add_item(ptr noundef %30, i32 noundef %31, ptr noundef %32, i32 noundef %33, i32 noundef 1, i32 noundef 0)
  %35 = load i8, ptr %16, align 1
  %36 = zext i8 %35 to i32
  %37 = and i32 %36, 15
  %38 = trunc i32 %37 to i8
  store i8 %38, ptr %17, align 1
  %39 = load i8, ptr %17, align 1
  store i8 %39, ptr @cell_discriminator, align 1
  %40 = load i32, ptr %18, align 4
  %41 = add i32 %40, 1
  store i32 %41, ptr %18, align 4
  %42 = load i32, ptr %13, align 4
  %43 = load i32, ptr %18, align 4
  %44 = load i32, ptr %12, align 4
  %45 = sub i32 %43, %44
  %46 = icmp ule i32 %42, %45
  br i1 %46, label %47, label %50

47:                                               ; preds = %7
  %48 = load i32, ptr %13, align 4
  %49 = trunc i32 %48 to i16
  store i16 %49, ptr %8, align 2
  store i32 1, ptr %19, align 4
  br label %71

50:                                               ; preds = %7
  %51 = load ptr, ptr %9, align 8
  %52 = load ptr, ptr %10, align 8
  %53 = load ptr, ptr %11, align 8
  %54 = load i32, ptr %18, align 4
  %55 = load i32, ptr %13, align 4
  %56 = load i32, ptr %18, align 4
  %57 = load i32, ptr %12, align 4
  %58 = sub i32 %56, %57
  %59 = sub i32 %55, %58
  %60 = load ptr, ptr %14, align 8
  %61 = load i32, ptr %15, align 4
  %62 = load i8, ptr %17, align 1
  %63 = call zeroext i16 @be_cell_id_aux(ptr noundef %51, ptr noundef %52, ptr noundef %53, i32 noundef %54, i32 noundef %59, ptr noundef %60, i32 noundef %61, i8 noundef zeroext %62)
  %64 = zext i16 %63 to i32
  %65 = load i32, ptr %18, align 4
  %66 = add i32 %65, %64
  store i32 %66, ptr %18, align 4
  %67 = load i32, ptr %18, align 4
  %68 = load i32, ptr %12, align 4
  %69 = sub i32 %67, %68
  %70 = trunc i32 %69 to i16
  store i16 %70, ptr %8, align 2
  store i32 1, ptr %19, align 4
  br label %71

71:                                               ; preds = %50, %47
  call void @llvm.lifetime.end.p0(i64 4, ptr %18) #5
  call void @llvm.lifetime.end.p0(i64 1, ptr %17) #5
  call void @llvm.lifetime.end.p0(i64 1, ptr %16) #5
  %72 = load i16, ptr %8, align 2
  ret i16 %72
}