; Function Attrs: null_pointer_is_valid sspstrong uwtable
define internal zeroext i16 @be_cell_id(ptr noundef %0, ptr noundef %1, ptr noundef %2, i32 noundef %3, i32 noundef %4, ptr noundef %5, i32 noundef %6) #1 {
  %8 = tail call zeroext i8 @tvb_get_uint8(ptr noundef %0, i32 noundef %3)
  %9 = load i32, ptr @hf_gsm_a_bssmap_spare_bits, align 4
  %10 = shl i32 %3, 3
  %11 = tail call ptr @proto_tree_add_bits_item(ptr noundef %1, i32 noundef %9, ptr noundef %0, i32 noundef %10, i32 noundef 4, i32 noundef 0)
  %12 = load i32, ptr @hf_gsm_a_bssmap_be_cell_id_disc, align 4
  %13 = tail call ptr @proto_tree_add_item(ptr noundef %1, i32 noundef %12, ptr noundef %0, i32 noundef %3, i32 noundef 1, i32 noundef 0)
  %14 = and i8 %8, 15
  store i8 %14, ptr @cell_discriminator, align 1
  %15 = icmp ult i32 %4, 2
  br i1 %15, label %22, label %16

16:                                               ; preds = %7
  %17 = add i32 %3, 1
  %18 = add i32 %4, -1
  %19 = tail call noundef zeroext i16 @be_cell_id_type(ptr noundef %0, ptr noundef %1, ptr noundef %2, i32 noundef %17, i32 noundef %18, ptr noundef %5, i32 noundef %6, i8 noundef zeroext %14, i32 noundef 0)
  %20 = zext i16 %19 to i32
  %21 = add nuw nsw i32 %20, 1
  br label %22

22:                                               ; preds = %7, %16
  %.0.in = phi i32 [ %21, %16 ], [ %4, %7 ]
  %.0 = trunc i32 %.0.in to i16
  ret i16 %.0
}